target datalayout = "e-m:e-p270:32:32-p271:32:32-p272:64:64-i64:64-i128:128-f80:128-n8:16:32:64-S128"
target triple = "x86_64-pc-linux-gnu"

%struct.avifArrayInternal = type { ptr, i32, i32, i32 }

; Function Attrs: nounwind uwtable
define hidden void @avifArrayPop(ptr noundef %0) #0 {
  %2 = alloca ptr, align 8
  %3 = alloca ptr, align 8
  store ptr %0, ptr %2, align 8
  %4 = load ptr, ptr %2, align 8
  store ptr %4, ptr %3, align 8
  %5 = load ptr, ptr %3, align 8
  %6 = getelementptr inbounds nuw %struct.avifArrayInternal, ptr %5, i32 0, i32 2
  %7 = load i32, ptr %6, align 4
  %8 = add i32 %7, -1
  store i32 %8, ptr %6, align 4
  %9 = load ptr, ptr %3, align 8
  %10 = getelementptr inbounds nuw %struct.avifArrayInternal, ptr %9, i32 0, i32 0
  %11 = load ptr, ptr %10, align 8
  %12 = load ptr, ptr %3, align 8
  %13 = getelementptr inbounds nuw %struct.avifArrayInternal, ptr %12, i32 0, i32 2
  %14 = load i32, ptr %13, align 4
  %15 = zext i32 %14 to i64
  %16 = load ptr, ptr %3, align 8
  %17 = getelementptr inbounds nuw %struct.avifArrayInternal, ptr %16, i32 0, i32 1
  %18 = load i32, ptr %17, align 8
  %19 = zext i32 %18 to i64
  %20 = mul i64 %15, %19
  %21 = getelementptr inbounds i8, ptr %11, i64 %20
  %22 = load ptr, ptr %3, align 8
  %23 = getelementptr inbounds nuw %struct.avifArrayInternal, ptr %22, i32 0, i32 1
  %24 = load i32, ptr %23, align 8
  %25 = zext i32 %24 to i64
  call void @llvm.memset.p0.i64(ptr align 1 %21, i8 0, i64 %25, i1 false)
  ret void
}