; Function Attrs: mustprogress nofree norecurse nosync nounwind willreturn memory(write, argmem: readwrite, inaccessiblemem: none) uwtable
define hidden void @avifArrayPop(ptr nocapture noundef %0) local_unnamed_addr #6 {
  %2 = getelementptr inbounds nuw i8, ptr %0, i64 12
  %3 = load i32, ptr %2, align 4
  %4 = add i32 %3, -1
  store i32 %4, ptr %2, align 4
  %5 = load ptr, ptr %0, align 8
  %6 = zext i32 %4 to i64
  %7 = getelementptr inbounds nuw i8, ptr %0, i64 8
  %8 = load i32, ptr %7, align 8
  %9 = zext i32 %8 to i64
  %10 = mul nuw i64 %9, %6
  %11 = getelementptr inbounds i8, ptr %5, i64 %10
  tail call void @llvm.memset.p0.i64(ptr align 1 %11, i8 0, i64 %9, i1 false)
  ret void
}